; Function Attrs: mustprogress uwtable
define void @_ZNK7rocksdb25CacheWithSecondaryAdapter25GetSecondaryCacheCapacityERm(ptr noalias sret(%"class.rocksdb::Status") align 8 %agg.result, ptr nocapture noundef nonnull readonly align 8 dereferenceable(184) %this, ptr noundef nonnull align 8 dereferenceable(8) %size) unnamed_addr #0 align 2 {
entry:
  %secondary_cache_ = getelementptr inbounds i8, ptr %this, i64 72
  %0 = load ptr, ptr %secondary_cache_, align 8
  %vtable = load ptr, ptr %0, align 8
  %vfn = getelementptr inbounds i8, ptr %vtable, i64 208
  %1 = load ptr, ptr %vfn, align 8
  tail call void %1(ptr sret(%"class.rocksdb::Status") align 8 %agg.result, ptr noundef nonnull align 8 dereferenceable(32) %0, ptr noundef nonnull align 8 dereferenceable(8) %size)
  ret void
}